#include <math.h>
#include <stdio.h>
#include <stdlib.h>
#include <string.h>

int main(){
 double k,m,n,s=0;
 int i;
 char a[501],b[501];
 scanf("%lf",&k);
 scanf("%s",a);
 scanf("%s",b);
 m=strlen(a);
 n=strlen(b);
 if(m!=n){
   printf("error");
 }else{
   for(i=0;i<m;i++){
     if(((a[i]=='A')||(a[i]=='G')||(a[i]=='C')||(a[i]=='T'))&&((b[i]=='A')||(b[i]=='G')||(b[i]=='C')||(b[i]=='T'))){
       if(a[i]==b[i]){
           s++;
       }else{
           s=s;
       }
   }else{
       s=-1;
       break;
   }
  }
  s=s/m;
  if(s<0){
      printf("error");
  }else if(s>=0&&s<=k){
      printf("no");
  }else{
      printf("yes");
  }
 }
 return 0;
}

